; Function Attrs: null_pointer_is_valid sspstrong uwtable
define internal i32 @dissect_tetra_D_CALL_RESTORE(ptr noundef %0, i32 noundef %1, ptr noundef %2, ptr noundef %3, i32 noundef %4) #0 {
  %6 = load i32, ptr @ett_tetra_D_CALL_RESTORE, align 4
  %7 = tail call i32 @dissect_per_sequence(ptr noundef %0, i32 noundef %1, ptr noundef %2, ptr noundef %3, i32 noundef %4, i32 noundef %6, ptr noundef nonnull @D_CALL_RESTORE_sequence)
  %8 = getelementptr inbounds nuw i8, ptr %2, i64 16
  %9 = load ptr, ptr %8, align 8
  %10 = getelementptr inbounds nuw i8, ptr %9, i64 8
  %11 = load ptr, ptr %10, align 8
  tail call void @col_append_sep_str(ptr noundef %11, i32 noundef 25, ptr noundef null, ptr noundef nonnull @.str.1147)
  ret i32 %7
}